target datalayout = "e-m:e-p270:32:32-p271:32:32-p272:64:64-i64:64-i128:128-f80:128-n8:16:32:64-S128"
target triple = "x86_64-pc-linux-gnu"

%struct.pg_conn = type { ptr, ptr, ptr, ptr, ptr, ptr, ptr, ptr, ptr, ptr, ptr, ptr, ptr, ptr, ptr, ptr, ptr, ptr, ptr, ptr, ptr, ptr, ptr, ptr, ptr, ptr, ptr, ptr, ptr, ptr, ptr, ptr, ptr, ptr, ptr, ptr, ptr, ptr, ptr, ptr, ptr, ptr, ptr, i8, ptr, i32, %struct.PGNoticeHooks, ptr, i32, i32, i32, i32, i32, [6 x i8], i8, i8, i32, i8, i8, i32, i8, i32, ptr, ptr, i32, i32, ptr, ptr, ptr, ptr, ptr, i32, %struct.SockAddr, %struct.SockAddr, i32, i32, i8, i8, i8, i8, i8, i8, ptr, i8, i32, [1 x ptr], i8, i8, ptr, ptr, i32, i32, i32, i8, i8, i32, i32, ptr, i8, i64, ptr, i64, ptr, i32, i32, ptr, i32, i8, i32, i32, i32, i32, ptr, %struct.pg_prng_state, ptr, i32, i32, i32, i32, ptr, i32, i32, i32, i32, ptr, i32, ptr, i8, ptr, ptr, ptr, i32, i8, i8, i8, i8, i8, i8, i8, i8, %struct.PQExpBufferData, i32, %struct.PQExpBufferData }
%struct.PGNoticeHooks = type { ptr, ptr, ptr, ptr }
%struct.SockAddr = type { %struct.sockaddr_storage, i32 }
%struct.sockaddr_storage = type { i16, [118 x i8], i64 }
%struct.pg_prng_state = type { i64, i64 }
%struct.PQExpBufferData = type { ptr, i64, i64 }

; Function Attrs: nounwind uwtable
define internal i32 @pqGets_internal(ptr noundef %0, ptr noundef %1, i1 noundef zeroext %2) #0 {
  %4 = alloca i32, align 4
  %5 = alloca ptr, align 8
  %6 = alloca ptr, align 8
  %7 = alloca i8, align 1
  %8 = alloca ptr, align 8
  %9 = alloca i32, align 4
  %10 = alloca i32, align 4
  %11 = alloca i32, align 4
  %12 = alloca i32, align 4
  store ptr %0, ptr %5, align 8
  store ptr %1, ptr %6, align 8
  %13 = zext i1 %2 to i8
  store i8 %13, ptr %7, align 1
  call void @llvm.lifetime.start.p0(i64 8, ptr %8) #10
  %14 = load ptr, ptr %6, align 8
  %15 = getelementptr inbounds nuw %struct.pg_conn, ptr %14, i32 0, i32 114
  %16 = load ptr, ptr %15, align 8
  store ptr %16, ptr %8, align 8
  call void @llvm.lifetime.start.p0(i64 4, ptr %9) #10
  %17 = load ptr, ptr %6, align 8
  %18 = getelementptr inbounds nuw %struct.pg_conn, ptr %17, i32 0, i32 117
  %19 = load i32, ptr %18, align 8
  store i32 %19, ptr %9, align 4
  call void @llvm.lifetime.start.p0(i64 4, ptr %10) #10
  %20 = load ptr, ptr %6, align 8
  %21 = getelementptr inbounds nuw %struct.pg_conn, ptr %20, i32 0, i32 118
  %22 = load i32, ptr %21, align 4
  store i32 %22, ptr %10, align 4
  call void @llvm.lifetime.start.p0(i64 4, ptr %11) #10
  br label %23

23:                                               ; preds = %37, %3
  %24 = load i32, ptr %9, align 4
  %25 = load i32, ptr %10, align 4
  %26 = icmp slt i32 %24, %25
  br i1 %26, label %27, label %35

27:                                               ; preds = %23
  %28 = load ptr, ptr %8, align 8
  %29 = load i32, ptr %9, align 4
  %30 = sext i32 %29 to i64
  %31 = getelementptr inbounds i8, ptr %28, i64 %30
  %32 = load i8, ptr %31, align 1
  %33 = sext i8 %32 to i32
  %34 = icmp ne i32 %33, 0
  br label %35

35:                                               ; preds = %27, %23
  %36 = phi i1 [ false, %23 ], [ %34, %27 ]
  br i1 %36, label %37, label %40

37:                                               ; preds = %35
  %38 = load i32, ptr %9, align 4
  %39 = add i32 %38, 1
  store i32 %39, ptr %9, align 4
  br label %23, !llvm.loop !3

40:                                               ; preds = %35
  %41 = load i32, ptr %9, align 4
  %42 = load i32, ptr %10, align 4
  %43 = icmp sge i32 %41, %42
  br i1 %43, label %44, label %45

44:                                               ; preds = %40
  store i32 -1, ptr %4, align 4
  store i32 1, ptr %12, align 4
  br label %69

45:                                               ; preds = %40
  %46 = load i32, ptr %9, align 4
  %47 = load ptr, ptr %6, align 8
  %48 = getelementptr inbounds nuw %struct.pg_conn, ptr %47, i32 0, i32 117
  %49 = load i32, ptr %48, align 8
  %50 = sub i32 %46, %49
  store i32 %50, ptr %11, align 4
  %51 = load i8, ptr %7, align 1, !range !5, !noundef !6
  %52 = trunc i8 %51 to i1
  br i1 %52, label %53, label %55

53:                                               ; preds = %45
  %54 = load ptr, ptr %5, align 8
  call void @resetPQExpBuffer(ptr noundef %54)
  br label %55

55:                                               ; preds = %53, %45
  %56 = load ptr, ptr %5, align 8
  %57 = load ptr, ptr %8, align 8
  %58 = load ptr, ptr %6, align 8
  %59 = getelementptr inbounds nuw %struct.pg_conn, ptr %58, i32 0, i32 117
  %60 = load i32, ptr %59, align 8
  %61 = sext i32 %60 to i64
  %62 = getelementptr inbounds i8, ptr %57, i64 %61
  %63 = load i32, ptr %11, align 4
  %64 = sext i32 %63 to i64
  call void @appendBinaryPQExpBuffer(ptr noundef %56, ptr noundef %62, i64 noundef %64)
  %65 = load i32, ptr %9, align 4
  %66 = add i32 %65, 1
  store i32 %66, ptr %9, align 4
  %67 = load ptr, ptr %6, align 8
  %68 = getelementptr inbounds nuw %struct.pg_conn, ptr %67, i32 0, i32 117
  store i32 %66, ptr %68, align 8
  store i32 0, ptr %4, align 4
  store i32 1, ptr %12, align 4
  br label %69

69:                                               ; preds = %55, %44
  call void @llvm.lifetime.end.p0(i64 4, ptr %11) #10
  call void @llvm.lifetime.end.p0(i64 4, ptr %10) #10
  call void @llvm.lifetime.end.p0(i64 4, ptr %9) #10
  call void @llvm.lifetime.end.p0(i64 8, ptr %8) #10
  %70 = load i32, ptr %4, align 4
  ret i32 %70
}

; Function Attrs: nounwind uwtable
define i32 @pqGets_append(ptr noundef %0, ptr noundef %1) #0 {
  %3 = alloca ptr, align 8
  %4 = alloca ptr, align 8
  store ptr %0, ptr %3, align 8
  store ptr %1, ptr %4, align 8
  %5 = load ptr, ptr %3, align 8
  %6 = load ptr, ptr %4, align 8
  %7 = call i32 @pqGets_internal(ptr noundef %5, ptr noundef %6, i1 noundef zeroext false)
  ret i32 %7
}