; Function Attrs: nounwind uwtable
define range(i32 -1, 1) i32 @pqGets_append(ptr noundef %0, ptr noundef captures(none) %1) local_unnamed_addr #2 {
  %3 = getelementptr inbounds nuw i8, ptr %1, i64 1000
  %4 = load ptr, ptr %3, align 8
  %5 = getelementptr inbounds nuw i8, ptr %1, i64 1016
  %6 = load i32, ptr %5, align 8
  %7 = getelementptr inbounds nuw i8, ptr %1, i64 1020
  %8 = load i32, ptr %7, align 4
  %9 = icmp slt i32 %6, %8
  br i1 %9, label %.lr.ph.preheader.i, label %pqGets_internal.exit

.lr.ph.preheader.i:                               ; preds = %2
  %10 = sext i32 %6 to i64
  br label %.lr.ph.i

.lr.ph.i:                                         ; preds = %13, %.lr.ph.preheader.i
  %indvars.iv.i = phi i64 [ %10, %.lr.ph.preheader.i ], [ %indvars.iv.next.i, %13 ]
  %11 = getelementptr inbounds i8, ptr %4, i64 %indvars.iv.i
  %12 = load i8, ptr %11, align 1
  %.not.i = icmp eq i8 %12, 0
  br i1 %.not.i, label %14, label %13

13:                                               ; preds = %.lr.ph.i
  %indvars.iv.next.i = add nsw i64 %indvars.iv.i, 1
  %lftr.wideiv.i = trunc i64 %indvars.iv.next.i to i32
  %exitcond.not.i = icmp eq i32 %8, %lftr.wideiv.i
  br i1 %exitcond.not.i, label %pqGets_internal.exit, label %.lr.ph.i, !llvm.loop !6

14:                                               ; preds = %.lr.ph.i
  %15 = trunc nsw i64 %indvars.iv.i to i32
  %16 = sub i32 %15, %6
  %17 = getelementptr inbounds i8, ptr %4, i64 %10
  %18 = sext i32 %16 to i64
  tail call void @appendBinaryPQExpBuffer(ptr noundef %0, ptr noundef %17, i64 noundef %18) #19
  %19 = add nsw i32 %15, 1
  store i32 %19, ptr %5, align 8
  br label %pqGets_internal.exit

pqGets_internal.exit:                             ; preds = %13, %2, %14
  %.0.i = phi i32 [ 0, %14 ], [ -1, %2 ], [ -1, %13 ]
  ret i32 %.0.i
}